target datalayout = "e-m:e-p270:32:32-p271:32:32-p272:64:64-i64:64-i128:128-f80:128-n8:16:32:64-S128"
target triple = "x86_64-pc-linux-gnu"

%struct.H5T_conv_func_t = type { i8, %union.anon.14 }
%union.anon.14 = type { ptr }
%struct.H5T_path_t = type { [32 x i8], ptr, ptr, %struct.H5T_conv_func_t, i8, i8, %struct.H5T_cdata_t }
%struct.H5T_cdata_t = type { i32, i32, i8, ptr }

; Function Attrs: nounwind uwtable
define zeroext i1 @H5T_path_noop(ptr noundef %0) #0 {
  %2 = alloca ptr, align 8
  store ptr %0, ptr %2, align 8
  %3 = load ptr, ptr %2, align 8
  %4 = getelementptr inbounds %struct.H5T_path_t, ptr %3, i32 0, i32 5
  %5 = load i8, ptr %4, align 1
  %6 = trunc i8 %5 to i1
  br i1 %6, label %23, label %7

7:                                                ; preds = %1
  %8 = load ptr, ptr %2, align 8
  %9 = getelementptr inbounds %struct.H5T_path_t, ptr %8, i32 0, i32 4
  %10 = load i8, ptr %9, align 8
  %11 = trunc i8 %10 to i1
  br i1 %11, label %12, label %21

12:                                               ; preds = %7
  %13 = load ptr, ptr %2, align 8
  %14 = getelementptr inbounds %struct.H5T_path_t, ptr %13, i32 0, i32 1
  %15 = load ptr, ptr %14, align 8
  %16 = load ptr, ptr %2, align 8
  %17 = getelementptr inbounds %struct.H5T_path_t, ptr %16, i32 0, i32 2
  %18 = load ptr, ptr %17, align 8
  %19 = call i32 @H5T_cmp(ptr noundef %15, ptr noundef %18, i1 noundef zeroext false)
  %20 = icmp eq i32 0, %19
  br label %21

21:                                               ; preds = %12, %7
  %22 = phi i1 [ false, %7 ], [ %20, %12 ]
  br label %23

23:                                               ; preds = %21, %1
  %24 = phi i1 [ true, %1 ], [ %22, %21 ]
  ret i1 %24
}