; Function Attrs: nounwind uwtable
define zeroext i1 @H5T_path_noop(ptr nocapture noundef readonly %0) local_unnamed_addr #0 {
  %2 = getelementptr inbounds i8, ptr %0, i64 65
  %3 = load i8, ptr %2, align 1
  %4 = trunc i8 %3 to i1
  br i1 %4, label %16, label %5

5:                                                ; preds = %1
  %6 = getelementptr inbounds i8, ptr %0, i64 64
  %7 = load i8, ptr %6, align 8
  %8 = trunc i8 %7 to i1
  br i1 %8, label %9, label %16

9:                                                ; preds = %5
  %10 = getelementptr inbounds i8, ptr %0, i64 32
  %11 = load ptr, ptr %10, align 8
  %12 = getelementptr inbounds i8, ptr %0, i64 40
  %13 = load ptr, ptr %12, align 8
  %14 = tail call i32 @H5T_cmp(ptr noundef %11, ptr noundef %13, i1 noundef zeroext false)
  %15 = icmp eq i32 %14, 0
  br label %16

16:                                               ; preds = %5, %9, %1
  %17 = phi i1 [ true, %1 ], [ false, %5 ], [ %15, %9 ]
  ret i1 %17
}